target datalayout = "e-m:e-p270:32:32-p271:32:32-p272:64:64-i64:64-i128:128-f80:128-n8:16:32:64-S128"
target triple = "x86_64-pc-linux-gnu"

%struct.TupleTableSlotOps = type { i64, ptr, ptr, ptr, ptr, ptr, ptr, ptr, ptr, ptr, ptr, ptr, ptr }
%struct.SortState = type { %struct.ScanState, i8, i8, i64, i8, i8, i64, ptr, i8, i8, ptr }
%struct.ScanState = type { %struct.PlanState, ptr, ptr, ptr }
%struct.PlanState = type { i32, ptr, ptr, ptr, ptr, ptr, ptr, ptr, ptr, ptr, ptr, ptr, ptr, ptr, ptr, ptr, ptr, ptr, i8, ptr, ptr, ptr, ptr, ptr, i8, i8, i8, i8, i8, i8, i8, i8 }
%struct.TupleTableSlot = type { i32, i16, i16, ptr, ptr, ptr, ptr, ptr, %struct.ItemPointerData, i32 }
%struct.ItemPointerData = type { %struct.BlockIdData, i16 }
%struct.BlockIdData = type { i16, i16 }

; Function Attrs: inlinehint nounwind uwtable
define internal ptr @ExecClearTuple(ptr noundef %0) #2 {
  %2 = alloca ptr, align 8
  store ptr %0, ptr %2, align 8
  %3 = load ptr, ptr %2, align 8
  %4 = getelementptr inbounds nuw %struct.TupleTableSlot, ptr %3, i32 0, i32 3
  %5 = load ptr, ptr %4, align 8
  %6 = getelementptr inbounds nuw %struct.TupleTableSlotOps, ptr %5, i32 0, i32 3
  %7 = load ptr, ptr %6, align 8
  %8 = load ptr, ptr %2, align 8
  call void %7(ptr noundef %8)
  %9 = load ptr, ptr %2, align 8
  ret ptr %9
}

; Function Attrs: nounwind uwtable
define dso_local void @ExecReScanSort(ptr noundef %0) #0 {
  %2 = alloca ptr, align 8
  %3 = alloca ptr, align 8
  %4 = alloca i32, align 4
  store ptr %0, ptr %2, align 8
  call void @llvm.lifetime.start.p0(i64 8, ptr %3) #7
  %5 = load ptr, ptr %2, align 8
  %6 = getelementptr inbounds nuw %struct.PlanState, ptr %5, i32 0, i32 9
  %7 = load ptr, ptr %6, align 8
  store ptr %7, ptr %3, align 8
  %8 = load ptr, ptr %2, align 8
  %9 = getelementptr inbounds nuw %struct.SortState, ptr %8, i32 0, i32 4
  %10 = load i8, ptr %9, align 8, !range !4, !noundef !5
  %11 = trunc i8 %10 to i1
  br i1 %11, label %13, label %12

12:                                               ; preds = %1
  store i32 1, ptr %4, align 4
  br label %69

13:                                               ; preds = %1
  %14 = load ptr, ptr %2, align 8
  %15 = getelementptr inbounds nuw %struct.SortState, ptr %14, i32 0, i32 0
  %16 = getelementptr inbounds nuw %struct.ScanState, ptr %15, i32 0, i32 0
  %17 = getelementptr inbounds nuw %struct.PlanState, ptr %16, i32 0, i32 15
  %18 = load ptr, ptr %17, align 8
  %19 = call ptr @ExecClearTuple(ptr noundef %18)
  %20 = load ptr, ptr %3, align 8
  %21 = getelementptr inbounds nuw %struct.PlanState, ptr %20, i32 0, i32 13
  %22 = load ptr, ptr %21, align 8
  %23 = icmp ne ptr %22, null
  br i1 %23, label %49, label %24

24:                                               ; preds = %13
  %25 = load ptr, ptr %2, align 8
  %26 = getelementptr inbounds nuw %struct.SortState, ptr %25, i32 0, i32 2
  %27 = load i8, ptr %26, align 1, !range !4, !noundef !5
  %28 = trunc i8 %27 to i1
  %29 = zext i1 %28 to i32
  %30 = load ptr, ptr %2, align 8
  %31 = getelementptr inbounds nuw %struct.SortState, ptr %30, i32 0, i32 5
  %32 = load i8, ptr %31, align 1, !range !4, !noundef !5
  %33 = trunc i8 %32 to i1
  %34 = zext i1 %33 to i32
  %35 = icmp ne i32 %29, %34
  br i1 %35, label %49, label %36

36:                                               ; preds = %24
  %37 = load ptr, ptr %2, align 8
  %38 = getelementptr inbounds nuw %struct.SortState, ptr %37, i32 0, i32 3
  %39 = load i64, ptr %38, align 8
  %40 = load ptr, ptr %2, align 8
  %41 = getelementptr inbounds nuw %struct.SortState, ptr %40, i32 0, i32 6
  %42 = load i64, ptr %41, align 8
  %43 = icmp ne i64 %39, %42
  br i1 %43, label %49, label %44

44:                                               ; preds = %36
  %45 = load ptr, ptr %2, align 8
  %46 = getelementptr inbounds nuw %struct.SortState, ptr %45, i32 0, i32 1
  %47 = load i8, ptr %46, align 8, !range !4, !noundef !5
  %48 = trunc i8 %47 to i1
  br i1 %48, label %64, label %49

49:                                               ; preds = %44, %36, %24, %13
  %50 = load ptr, ptr %2, align 8
  %51 = getelementptr inbounds nuw %struct.SortState, ptr %50, i32 0, i32 4
  store i8 0, ptr %51, align 8
  %52 = load ptr, ptr %2, align 8
  %53 = getelementptr inbounds nuw %struct.SortState, ptr %52, i32 0, i32 7
  %54 = load ptr, ptr %53, align 8
  call void @tuplesort_end(ptr noundef %54)
  %55 = load ptr, ptr %2, align 8
  %56 = getelementptr inbounds nuw %struct.SortState, ptr %55, i32 0, i32 7
  store ptr null, ptr %56, align 8
  %57 = load ptr, ptr %3, align 8
  %58 = getelementptr inbounds nuw %struct.PlanState, ptr %57, i32 0, i32 13
  %59 = load ptr, ptr %58, align 8
  %60 = icmp eq ptr %59, null
  br i1 %60, label %61, label %63

61:                                               ; preds = %49
  %62 = load ptr, ptr %3, align 8
  call void @ExecReScan(ptr noundef %62)
  br label %63

63:                                               ; preds = %61, %49
  br label %68

64:                                               ; preds = %44
  %65 = load ptr, ptr %2, align 8
  %66 = getelementptr inbounds nuw %struct.SortState, ptr %65, i32 0, i32 7
  %67 = load ptr, ptr %66, align 8
  call void @tuplesort_rescan(ptr noundef %67)
  br label %68

68:                                               ; preds = %64, %63
  store i32 0, ptr %4, align 4
  br label %69

69:                                               ; preds = %68, %12
  call void @llvm.lifetime.end.p0(i64 8, ptr %3) #7
  %70 = load i32, ptr %4, align 4
  switch i32 %70, label %72 [
    i32 0, label %71
    i32 1, label %71
  ]

71:                                               ; preds = %69, %69
  ret void

72:                                               ; preds = %69
  unreachable
}