; Function Attrs: nounwind uwtable
define dso_local void @ExecReScanSort(ptr noundef captures(none) %0) local_unnamed_addr #0 {
  %2 = getelementptr inbounds nuw i8, ptr %0, i64 72
  %3 = load ptr, ptr %2, align 8
  %4 = getelementptr inbounds nuw i8, ptr %0, i64 240
  %5 = load i8, ptr %4, align 8, !range !5, !noundef !6
  %6 = trunc nuw i8 %5 to i1
  br i1 %6, label %7, label %39

7:                                                ; preds = %1
  %8 = getelementptr inbounds nuw i8, ptr %0, i64 120
  %9 = load ptr, ptr %8, align 8
  %10 = getelementptr inbounds nuw i8, ptr %9, i64 8
  %11 = load ptr, ptr %10, align 8
  %12 = getelementptr inbounds nuw i8, ptr %11, i64 24
  %13 = load ptr, ptr %12, align 8
  tail call void %13(ptr noundef %9) #4
  %14 = getelementptr inbounds nuw i8, ptr %3, i64 104
  %15 = load ptr, ptr %14, align 8
  %.not = icmp eq ptr %15, null
  br i1 %.not, label %16, label %30

16:                                               ; preds = %7
  %17 = getelementptr inbounds nuw i8, ptr %0, i64 225
  %18 = load i8, ptr %17, align 1, !range !5, !noundef !6
  %19 = getelementptr inbounds nuw i8, ptr %0, i64 241
  %20 = load i8, ptr %19, align 1, !range !5, !noundef !6
  %.not15 = icmp eq i8 %18, %20
  br i1 %.not15, label %21, label %30

21:                                               ; preds = %16
  %22 = getelementptr inbounds nuw i8, ptr %0, i64 232
  %23 = load i64, ptr %22, align 8
  %24 = getelementptr inbounds nuw i8, ptr %0, i64 248
  %25 = load i64, ptr %24, align 8
  %.not16 = icmp eq i64 %23, %25
  br i1 %.not16, label %26, label %30

26:                                               ; preds = %21
  %27 = getelementptr inbounds nuw i8, ptr %0, i64 224
  %28 = load i8, ptr %27, align 8, !range !5, !noundef !6
  %29 = trunc nuw i8 %28 to i1
  br i1 %29, label %36, label %30

30:                                               ; preds = %26, %21, %16, %7
  store i8 0, ptr %4, align 8
  %31 = getelementptr inbounds nuw i8, ptr %0, i64 256
  %32 = load ptr, ptr %31, align 8
  tail call void @tuplesort_end(ptr noundef %32) #4
  store ptr null, ptr %31, align 8
  %33 = load ptr, ptr %14, align 8
  %34 = icmp eq ptr %33, null
  br i1 %34, label %35, label %39

35:                                               ; preds = %30
  tail call void @ExecReScan(ptr noundef nonnull %3) #4
  br label %39

36:                                               ; preds = %26
  %37 = getelementptr inbounds nuw i8, ptr %0, i64 256
  %38 = load ptr, ptr %37, align 8
  tail call void @tuplesort_rescan(ptr noundef %38) #4
  br label %39

39:                                               ; preds = %36, %35, %30, %1
  ret void
}